target datalayout = "e-m:e-p270:32:32-p271:32:32-p272:64:64-i64:64-i128:128-f80:128-n8:16:32:64-S128"
target triple = "x86_64-pc-linux-gnu"

%"class.rocksdb::ConcurrentArena" = type { %"class.rocksdb::Allocator", [56 x i8], i64, %"class.rocksdb::CoreLocalArray", [8 x i8], %"class.rocksdb::Arena", %"class.rocksdb::SpinMutex", %"struct.std::atomic.8", %"struct.std::atomic.8", %"struct.std::atomic.8", [56 x i8], [8 x i8] }
%"class.rocksdb::Allocator" = type { ptr }
%"class.rocksdb::CoreLocalArray" = type <{ %"class.std::unique_ptr", i32, [4 x i8] }>
%"class.std::unique_ptr" = type { %"struct.std::__uniq_ptr_data" }
%"struct.std::__uniq_ptr_data" = type { %"class.std::__uniq_ptr_impl" }
%"class.std::__uniq_ptr_impl" = type { %"class.std::tuple" }
%"class.std::tuple" = type { %"struct.std::_Tuple_impl" }
%"struct.std::_Tuple_impl" = type { %"struct.std::_Head_base.1" }
%"struct.std::_Head_base.1" = type { ptr }
%"class.rocksdb::Arena" = type { %"class.rocksdb::Allocator", [8 x i8], [2048 x i8], i64, %"class.std::deque", %"class.std::deque.2", i64, ptr, ptr, i64, i64, i64, ptr }
%"class.std::deque" = type { %"class.std::_Deque_base" }
%"class.std::_Deque_base" = type { %"struct.std::_Deque_base<std::unique_ptr<char[]>, std::allocator<std::unique_ptr<char[]>>>::_Deque_impl" }
%"struct.std::_Deque_base<std::unique_ptr<char[]>, std::allocator<std::unique_ptr<char[]>>>::_Deque_impl" = type { %"struct.std::_Deque_base<std::unique_ptr<char[]>, std::allocator<std::unique_ptr<char[]>>>::_Deque_impl_data" }
%"struct.std::_Deque_base<std::unique_ptr<char[]>, std::allocator<std::unique_ptr<char[]>>>::_Deque_impl_data" = type { ptr, i64, %"struct.std::_Deque_iterator", %"struct.std::_Deque_iterator" }
%"struct.std::_Deque_iterator" = type { ptr, ptr, ptr, ptr }
%"class.std::deque.2" = type { %"class.std::_Deque_base.3" }
%"class.std::_Deque_base.3" = type { %"struct.std::_Deque_base<rocksdb::MemMapping, std::allocator<rocksdb::MemMapping>>::_Deque_impl" }
%"struct.std::_Deque_base<rocksdb::MemMapping, std::allocator<rocksdb::MemMapping>>::_Deque_impl" = type { %"struct.std::_Deque_base<rocksdb::MemMapping, std::allocator<rocksdb::MemMapping>>::_Deque_impl_data" }
%"struct.std::_Deque_base<rocksdb::MemMapping, std::allocator<rocksdb::MemMapping>>::_Deque_impl_data" = type { ptr, i64, %"struct.std::_Deque_iterator.7", %"struct.std::_Deque_iterator.7" }
%"struct.std::_Deque_iterator.7" = type { ptr, ptr, ptr, ptr }
%"class.rocksdb::SpinMutex" = type { %"struct.std::atomic" }
%"struct.std::atomic" = type { %"struct.std::__atomic_base" }
%"struct.std::__atomic_base" = type { i8 }
%"struct.std::atomic.8" = type { %"struct.std::__atomic_base.9" }
%"struct.std::__atomic_base.9" = type { i64 }
%"struct.rocksdb::ConcurrentArena::Shard" = type { [40 x i8], %"class.rocksdb::SpinMutex", ptr, %"struct.std::atomic.8" }
%"struct.std::pair" = type { ptr, i64 }
%"class.rocksdb::Random" = type { i32 }

@_ZN7rocksdb15ConcurrentArena9tls_cpuidE = thread_local global i64 0, align 8

; Function Attrs: mustprogress nounwind uwtable
define linkonce_odr noundef nonnull align 8 dereferenceable(8) ptr @_ZNSt10_Head_baseILm0EPN7rocksdb15ConcurrentArena5ShardELb0EE7_M_headERKS4_(ptr noundef nonnull align 8 dereferenceable(8) %0) #4 comdat align 2 {
  %2 = alloca ptr, align 8
  store ptr %0, ptr %2, align 8, !tbaa !107
  %3 = load ptr, ptr %2, align 8, !tbaa !107
  %4 = getelementptr inbounds nuw %"struct.std::_Head_base.1", ptr %3, i32 0, i32 0
  ret ptr %4
}

; Function Attrs: mustprogress nounwind uwtable
define linkonce_odr noundef nonnull align 8 dereferenceable(8) ptr @_ZNSt11_Tuple_implILm0EJPN7rocksdb15ConcurrentArena5ShardESt14default_deleteIA_S2_EEE7_M_headERKS7_(ptr noundef nonnull align 8 dereferenceable(8) %0) #4 comdat align 2 {
  %2 = alloca ptr, align 8
  store ptr %0, ptr %2, align 8, !tbaa !105
  %3 = load ptr, ptr %2, align 8, !tbaa !105
  %4 = call noundef nonnull align 8 dereferenceable(8) ptr @_ZNSt10_Head_baseILm0EPN7rocksdb15ConcurrentArena5ShardELb0EE7_M_headERKS4_(ptr noundef nonnull align 8 dereferenceable(8) %3) #17
  ret ptr %4
}

; Function Attrs: mustprogress nounwind uwtable
define linkonce_odr noundef nonnull align 8 dereferenceable(8) ptr @_ZSt12__get_helperILm0EPN7rocksdb15ConcurrentArena5ShardEJSt14default_deleteIA_S2_EEERKT0_RKSt11_Tuple_implIXT_EJS7_DpT1_EE(ptr noundef nonnull align 8 dereferenceable(8) %0) #4 comdat {
  %2 = alloca ptr, align 8
  store ptr %0, ptr %2, align 8, !tbaa !105
  %3 = load ptr, ptr %2, align 8, !tbaa !105
  %4 = call noundef nonnull align 8 dereferenceable(8) ptr @_ZNSt11_Tuple_implILm0EJPN7rocksdb15ConcurrentArena5ShardESt14default_deleteIA_S2_EEE7_M_headERKS7_(ptr noundef nonnull align 8 dereferenceable(8) %3) #17
  ret ptr %4
}

; Function Attrs: mustprogress nounwind uwtable
define linkonce_odr noundef nonnull align 8 dereferenceable(8) ptr @_ZSt3getILm0EJPN7rocksdb15ConcurrentArena5ShardESt14default_deleteIA_S2_EEERKNSt13tuple_elementIXT_ESt5tupleIJDpT0_EEE4typeERKSB_(ptr noundef nonnull align 8 dereferenceable(8) %0) #4 comdat {
  %2 = alloca ptr, align 8
  store ptr %0, ptr %2, align 8, !tbaa !103
  %3 = load ptr, ptr %2, align 8, !tbaa !103
  %4 = call noundef nonnull align 8 dereferenceable(8) ptr @_ZSt12__get_helperILm0EPN7rocksdb15ConcurrentArena5ShardEJSt14default_deleteIA_S2_EEERKT0_RKSt11_Tuple_implIXT_EJS7_DpT1_EE(ptr noundef nonnull align 8 dereferenceable(8) %3) #17
  ret ptr %4
}

; Function Attrs: mustprogress nounwind uwtable
define linkonce_odr noundef ptr @_ZNKSt15__uniq_ptr_implIN7rocksdb15ConcurrentArena5ShardESt14default_deleteIA_S2_EE6_M_ptrEv(ptr noundef nonnull align 8 dereferenceable(8) %0) #4 comdat align 2 {
  %2 = alloca ptr, align 8
  store ptr %0, ptr %2, align 8, !tbaa !99
  %3 = load ptr, ptr %2, align 8
  %4 = getelementptr inbounds nuw %"class.std::__uniq_ptr_impl", ptr %3, i32 0, i32 0
  %5 = call noundef nonnull align 8 dereferenceable(8) ptr @_ZSt3getILm0EJPN7rocksdb15ConcurrentArena5ShardESt14default_deleteIA_S2_EEERKNSt13tuple_elementIXT_ESt5tupleIJDpT0_EEE4typeERKSB_(ptr noundef nonnull align 8 dereferenceable(8) %4) #17
  %6 = load ptr, ptr %5, align 8, !tbaa !65
  ret ptr %6
}

; Function Attrs: mustprogress nounwind uwtable
define linkonce_odr noundef ptr @_ZNKSt10unique_ptrIA_N7rocksdb15ConcurrentArena5ShardESt14default_deleteIS3_EE3getEv(ptr noundef nonnull align 8 dereferenceable(8) %0) #4 comdat align 2 {
  %2 = alloca ptr, align 8
  store ptr %0, ptr %2, align 8, !tbaa !95
  %3 = load ptr, ptr %2, align 8
  %4 = getelementptr inbounds nuw %"class.std::unique_ptr", ptr %3, i32 0, i32 0
  %5 = call noundef ptr @_ZNKSt15__uniq_ptr_implIN7rocksdb15ConcurrentArena5ShardESt14default_deleteIA_S2_EE6_M_ptrEv(ptr noundef nonnull align 8 dereferenceable(8) %4) #17
  ret ptr %5
}

; Function Attrs: mustprogress nounwind uwtable
define linkonce_odr noundef nonnull align 8 dereferenceable(64) ptr @_ZNKSt10unique_ptrIA_N7rocksdb15ConcurrentArena5ShardESt14default_deleteIS3_EEixEm(ptr noundef nonnull align 8 dereferenceable(8) %0, i64 noundef %1) #4 comdat align 2 {
  %3 = alloca ptr, align 8
  %4 = alloca i64, align 8
  store ptr %0, ptr %3, align 8, !tbaa !95
  store i64 %1, ptr %4, align 8, !tbaa !9
  %5 = load ptr, ptr %3, align 8
  br label %6

6:                                                ; preds = %2
  br label %7

7:                                                ; preds = %6
  %8 = call noundef ptr @_ZNKSt10unique_ptrIA_N7rocksdb15ConcurrentArena5ShardESt14default_deleteIS3_EE3getEv(ptr noundef nonnull align 8 dereferenceable(8) %5) #17
  %9 = load i64, ptr %4, align 8, !tbaa !9
  %10 = getelementptr inbounds nuw %"struct.rocksdb::ConcurrentArena::Shard", ptr %8, i64 %9
  ret ptr %10
}

; Function Attrs: alwaysinline mustprogress nounwind uwtable
define internal noundef i32 @_ZL9_bzhi_u32jj(i32 noundef %0, i32 noundef %1) #8 {
  %3 = alloca i32, align 4
  %4 = alloca i32, align 4
  store i32 %0, ptr %3, align 4, !tbaa !56
  store i32 %1, ptr %4, align 4, !tbaa !56
  %5 = load i32, ptr %3, align 4, !tbaa !56
  %6 = load i32, ptr %4, align 4, !tbaa !56
  %7 = call i32 @llvm.x86.bmi.bzhi.32(i32 %5, i32 %6)
  ret i32 %7
}

; Function Attrs: mustprogress nounwind uwtable
define linkonce_odr noundef i32 @_ZN7rocksdb6Random4NextEv(ptr noundef nonnull align 4 dereferenceable(4) %0) #4 comdat align 2 {
  %2 = alloca ptr, align 8
  %3 = alloca i64, align 8
  store ptr %0, ptr %2, align 8, !tbaa !121
  %4 = load ptr, ptr %2, align 8
  call void @llvm.lifetime.start.p0(i64 8, ptr %3) #17
  %5 = getelementptr inbounds nuw %"class.rocksdb::Random", ptr %4, i32 0, i32 0
  %6 = load i32, ptr %5, align 4, !tbaa !125
  %7 = zext i32 %6 to i64
  %8 = mul i64 %7, 16807
  store i64 %8, ptr %3, align 8, !tbaa !9
  %9 = load i64, ptr %3, align 8, !tbaa !9
  %10 = lshr i64 %9, 31
  %11 = load i64, ptr %3, align 8, !tbaa !9
  %12 = and i64 %11, 2147483647
  %13 = add i64 %10, %12
  %14 = trunc i64 %13 to i32
  %15 = getelementptr inbounds nuw %"class.rocksdb::Random", ptr %4, i32 0, i32 0
  store i32 %14, ptr %15, align 4, !tbaa !125
  %16 = getelementptr inbounds nuw %"class.rocksdb::Random", ptr %4, i32 0, i32 0
  %17 = load i32, ptr %16, align 4, !tbaa !125
  %18 = icmp ugt i32 %17, 2147483647
  br i1 %18, label %19, label %23

19:                                               ; preds = %1
  %20 = getelementptr inbounds nuw %"class.rocksdb::Random", ptr %4, i32 0, i32 0
  %21 = load i32, ptr %20, align 4, !tbaa !125
  %22 = sub i32 %21, 2147483647
  store i32 %22, ptr %20, align 4, !tbaa !125
  br label %23

23:                                               ; preds = %19, %1
  %24 = getelementptr inbounds nuw %"class.rocksdb::Random", ptr %4, i32 0, i32 0
  %25 = load i32, ptr %24, align 4, !tbaa !125
  call void @llvm.lifetime.end.p0(i64 8, ptr %3) #17
  ret i32 %25
}

; Function Attrs: mustprogress nounwind uwtable
define linkonce_odr void @_ZNSt4pairIPN7rocksdb15ConcurrentArena5ShardEmEC2IS3_RmTnNSt9enable_ifIXaaclsr5_PCCPE22_MoveConstructiblePairIT_T0_EEclsr5_PCCPE30_ImplicitlyMoveConvertiblePairIS8_S9_EEEbE4typeELb1EEEOS8_OS9_(ptr noundef nonnull align 8 dereferenceable(16) %0, ptr noundef nonnull align 8 dereferenceable(8) %1, ptr noundef nonnull align 8 dereferenceable(8) %2) unnamed_addr #4 comdat align 2 {
  %4 = alloca ptr, align 8
  %5 = alloca ptr, align 8
  %6 = alloca ptr, align 8
  store ptr %0, ptr %4, align 8, !tbaa !123
  store ptr %1, ptr %5, align 8, !tbaa !97
  store ptr %2, ptr %6, align 8, !tbaa !52
  %7 = load ptr, ptr %4, align 8
  %8 = getelementptr inbounds nuw %"struct.std::pair", ptr %7, i32 0, i32 0
  %9 = load ptr, ptr %5, align 8, !tbaa !97
  %10 = load ptr, ptr %9, align 8, !tbaa !65
  store ptr %10, ptr %8, align 8, !tbaa !64
  %11 = getelementptr inbounds nuw %"struct.std::pair", ptr %7, i32 0, i32 1
  %12 = load ptr, ptr %6, align 8, !tbaa !52
  %13 = load i64, ptr %12, align 8, !tbaa !9
  store i64 %13, ptr %11, align 8, !tbaa !62
  ret void
}

; Function Attrs: mustprogress uwtable
define linkonce_odr noundef ptr @_ZNK7rocksdb14CoreLocalArrayINS_15ConcurrentArena5ShardEE12AccessAtCoreEm(ptr noundef nonnull align 8 dereferenceable(12) %0, i64 noundef %1) #0 comdat align 2 {
  %3 = alloca ptr, align 8
  %4 = alloca i64, align 8
  store ptr %0, ptr %3, align 8, !tbaa !54
  store i64 %1, ptr %4, align 8, !tbaa !9
  %5 = load ptr, ptr %3, align 8
  %6 = getelementptr inbounds nuw %"class.rocksdb::CoreLocalArray", ptr %5, i32 0, i32 0
  %7 = load i64, ptr %4, align 8, !tbaa !9
  %8 = call noundef nonnull align 8 dereferenceable(64) ptr @_ZNKSt10unique_ptrIA_N7rocksdb15ConcurrentArena5ShardESt14default_deleteIS3_EEixEm(ptr noundef nonnull align 8 dereferenceable(8) %6, i64 noundef %7)
  ret ptr %8
}

; Function Attrs: inlinehint mustprogress uwtable
define linkonce_odr noundef i32 @_ZN7rocksdb11BottomNBitsIiEET_S1_i(i32 noundef %0, i32 noundef %1) #14 comdat {
  %3 = alloca i32, align 4
  %4 = alloca i32, align 4
  store i32 %0, ptr %3, align 4, !tbaa !56
  store i32 %1, ptr %4, align 4, !tbaa !56
  %5 = load i32, ptr %3, align 4, !tbaa !56
  %6 = load i32, ptr %4, align 4, !tbaa !56
  %7 = call noundef i32 @_ZL9_bzhi_u32jj(i32 noundef %5, i32 noundef %6)
  ret i32 %7
}

; Function Attrs: mustprogress uwtable
define linkonce_odr noundef i32 @_ZN7rocksdb6Random7UniformEi(ptr noundef nonnull align 4 dereferenceable(4) %0, i32 noundef %1) #0 comdat align 2 {
  %3 = alloca ptr, align 8
  %4 = alloca i32, align 4
  store ptr %0, ptr %3, align 8, !tbaa !121
  store i32 %1, ptr %4, align 4, !tbaa !56
  %5 = load ptr, ptr %3, align 8
  %6 = call noundef i32 @_ZN7rocksdb6Random4NextEv(ptr noundef nonnull align 4 dereferenceable(4) %5)
  %7 = load i32, ptr %4, align 4, !tbaa !56
  %8 = urem i32 %6, %7
  ret i32 %8
}

; Function Attrs: mustprogress nounwind uwtable
define linkonce_odr noundef i64 @_ZNK7rocksdb14CoreLocalArrayINS_15ConcurrentArena5ShardEE4SizeEv(ptr noundef nonnull align 8 dereferenceable(12) %0) #4 comdat align 2 {
  %2 = alloca ptr, align 8
  store ptr %0, ptr %2, align 8, !tbaa !54
  %3 = load ptr, ptr %2, align 8
  %4 = getelementptr inbounds nuw %"class.rocksdb::CoreLocalArray", ptr %3, i32 0, i32 1
  %5 = load i32, ptr %4, align 8, !tbaa !57
  %6 = zext i32 %5 to i64
  %7 = shl i64 1, %6
  ret i64 %7
}

; Function Attrs: mustprogress uwtable
define linkonce_odr { ptr, i64 } @_ZNK7rocksdb14CoreLocalArrayINS_15ConcurrentArena5ShardEE21AccessElementAndIndexEv(ptr noundef nonnull align 8 dereferenceable(12) %0) #0 comdat align 2 {
  %2 = alloca %"struct.std::pair", align 8
  %3 = alloca ptr, align 8
  %4 = alloca i32, align 4
  %5 = alloca i64, align 8
  %6 = alloca ptr, align 8
  store ptr %0, ptr %3, align 8, !tbaa !54
  %7 = load ptr, ptr %3, align 8
  call void @llvm.lifetime.start.p0(i64 4, ptr %4) #17
  %8 = call noundef i32 @_ZN7rocksdb4port14PhysicalCoreIDEv()
  store i32 %8, ptr %4, align 4, !tbaa !56
  call void @llvm.lifetime.start.p0(i64 8, ptr %5) #17
  %9 = load i32, ptr %4, align 4, !tbaa !56
  %10 = icmp slt i32 %9, 0
  %11 = zext i1 %10 to i64
  %12 = call i64 @llvm.expect.i64(i64 %11, i64 0)
  %13 = icmp ne i64 %12, 0
  br i1 %13, label %14, label %21

14:                                               ; preds = %1
  %15 = call noundef ptr @_ZN7rocksdb6Random14GetTLSInstanceEv()
  %16 = getelementptr inbounds nuw %"class.rocksdb::CoreLocalArray", ptr %7, i32 0, i32 1
  %17 = load i32, ptr %16, align 8, !tbaa !57
  %18 = shl i32 1, %17
  %19 = call noundef i32 @_ZN7rocksdb6Random7UniformEi(ptr noundef nonnull align 4 dereferenceable(4) %15, i32 noundef %18)
  %20 = zext i32 %19 to i64
  store i64 %20, ptr %5, align 8, !tbaa !9
  br label %27

21:                                               ; preds = %1
  %22 = load i32, ptr %4, align 4, !tbaa !56
  %23 = getelementptr inbounds nuw %"class.rocksdb::CoreLocalArray", ptr %7, i32 0, i32 1
  %24 = load i32, ptr %23, align 8, !tbaa !57
  %25 = call noundef i32 @_ZN7rocksdb11BottomNBitsIiEET_S1_i(i32 noundef %22, i32 noundef %24)
  %26 = sext i32 %25 to i64
  store i64 %26, ptr %5, align 8, !tbaa !9
  br label %27

27:                                               ; preds = %21, %14
  call void @llvm.lifetime.start.p0(i64 8, ptr %6) #17
  %28 = load i64, ptr %5, align 8, !tbaa !9
  %29 = call noundef ptr @_ZNK7rocksdb14CoreLocalArrayINS_15ConcurrentArena5ShardEE12AccessAtCoreEm(ptr noundef nonnull align 8 dereferenceable(12) %7, i64 noundef %28)
  store ptr %29, ptr %6, align 8, !tbaa !65
  call void @_ZNSt4pairIPN7rocksdb15ConcurrentArena5ShardEmEC2IS3_RmTnNSt9enable_ifIXaaclsr5_PCCPE22_MoveConstructiblePairIT_T0_EEclsr5_PCCPE30_ImplicitlyMoveConvertiblePairIS8_S9_EEEbE4typeELb1EEEOS8_OS9_(ptr noundef nonnull align 8 dereferenceable(16) %2, ptr noundef nonnull align 8 dereferenceable(8) %6, ptr noundef nonnull align 8 dereferenceable(8) %5)
  call void @llvm.lifetime.end.p0(i64 8, ptr %6) #17
  call void @llvm.lifetime.end.p0(i64 8, ptr %5) #17
  call void @llvm.lifetime.end.p0(i64 4, ptr %4) #17
  %30 = load { ptr, i64 }, ptr %2, align 8
  ret { ptr, i64 } %30
}

; Function Attrs: mustprogress uwtable
define noundef ptr @_ZN7rocksdb15ConcurrentArena6RepickEv(ptr noundef nonnull align 16 dereferenceable(2472) %0) #0 align 2 {
  %2 = alloca ptr, align 8
  %3 = alloca %"struct.std::pair", align 8
  store ptr %0, ptr %2, align 8, !tbaa !4
  %4 = load ptr, ptr %2, align 8
  call void @llvm.lifetime.start.p0(i64 16, ptr %3) #17
  %5 = getelementptr inbounds nuw %"class.rocksdb::ConcurrentArena", ptr %4, i32 0, i32 3
  %6 = call { ptr, i64 } @_ZNK7rocksdb14CoreLocalArrayINS_15ConcurrentArena5ShardEE21AccessElementAndIndexEv(ptr noundef nonnull align 8 dereferenceable(12) %5)
  %7 = getelementptr inbounds nuw { ptr, i64 }, ptr %3, i32 0, i32 0
  %8 = extractvalue { ptr, i64 } %6, 0
  store ptr %8, ptr %7, align 8
  %9 = getelementptr inbounds nuw { ptr, i64 }, ptr %3, i32 0, i32 1
  %10 = extractvalue { ptr, i64 } %6, 1
  store i64 %10, ptr %9, align 8
  %11 = getelementptr inbounds nuw %"struct.std::pair", ptr %3, i32 0, i32 1
  %12 = load i64, ptr %11, align 8, !tbaa !62
  %13 = getelementptr inbounds nuw %"class.rocksdb::ConcurrentArena", ptr %4, i32 0, i32 3
  %14 = call noundef i64 @_ZNK7rocksdb14CoreLocalArrayINS_15ConcurrentArena5ShardEE4SizeEv(ptr noundef nonnull align 8 dereferenceable(12) %13)
  %15 = or i64 %12, %14
  %16 = call align 8 ptr @llvm.threadlocal.address.p0(ptr align 8 @_ZN7rocksdb15ConcurrentArena9tls_cpuidE)
  store i64 %15, ptr %16, align 8, !tbaa !9
  %17 = getelementptr inbounds nuw %"struct.std::pair", ptr %3, i32 0, i32 0
  %18 = load ptr, ptr %17, align 8, !tbaa !64
  call void @llvm.lifetime.end.p0(i64 16, ptr %3) #17
  ret ptr %18
}