; Function Attrs: mustprogress uwtable
define noundef ptr @_ZN7rocksdb15ConcurrentArena6RepickEv(ptr noundef nonnull readonly align 16 captures(none) dereferenceable(2472) %0) local_unnamed_addr #0 align 2 {
  %2 = tail call noundef i32 @_ZN7rocksdb4port14PhysicalCoreIDEv()
  %3 = icmp slt i32 %2, 0
  br i1 %3, label %4, label %20, !prof !55

4:                                                ; preds = %1
  %5 = tail call noundef ptr @_ZN7rocksdb6Random14GetTLSInstanceEv()
  %6 = getelementptr inbounds nuw i8, ptr %0, i64 80
  %7 = load i32, ptr %6, align 16, !tbaa !49
  %8 = load i32, ptr %5, align 4, !tbaa !56
  %9 = zext i32 %8 to i64
  %10 = mul nuw nsw i64 %9, 16807
  %11 = lshr i64 %10, 31
  %12 = and i64 %10, 2147483647
  %13 = add nuw nsw i64 %11, %12
  %14 = trunc nuw i64 %13 to i32
  %15 = icmp slt i32 %14, 0
  %16 = add i32 %14, -2147483647
  %spec.select.i.i.i = select i1 %15, i32 %16, i32 %14
  store i32 %spec.select.i.i.i, ptr %5, align 4, !tbaa !56
  %notmask.i = shl nsw i32 -1, %7
  %17 = xor i32 %notmask.i, -1
  %18 = and i32 %spec.select.i.i.i, %17
  %19 = zext nneg i32 %18 to i64
  br label %_ZNK7rocksdb14CoreLocalArrayINS_15ConcurrentArena5ShardEE21AccessElementAndIndexEv.exit

20:                                               ; preds = %1
  %21 = getelementptr inbounds nuw i8, ptr %0, i64 80
  %22 = load i32, ptr %21, align 16, !tbaa !49
  %23 = tail call noundef i32 @llvm.x86.bmi.bzhi.32(i32 %2, i32 %22)
  %24 = sext i32 %23 to i64
  br label %_ZNK7rocksdb14CoreLocalArrayINS_15ConcurrentArena5ShardEE21AccessElementAndIndexEv.exit

_ZNK7rocksdb14CoreLocalArrayINS_15ConcurrentArena5ShardEE21AccessElementAndIndexEv.exit: ; preds = %4, %20
  %25 = phi i32 [ %22, %20 ], [ %7, %4 ]
  %storemerge.i = phi i64 [ %24, %20 ], [ %19, %4 ]
  %26 = getelementptr inbounds nuw i8, ptr %0, i64 72
  %27 = load ptr, ptr %26, align 8, !tbaa !51
  %28 = getelementptr inbounds nuw %"struct.rocksdb::ConcurrentArena::Shard", ptr %27, i64 %storemerge.i
  %29 = zext nneg i32 %25 to i64
  %30 = shl nuw i64 1, %29
  %31 = or i64 %30, %storemerge.i
  %32 = tail call align 8 ptr @llvm.threadlocal.address.p0(ptr align 8 @_ZN7rocksdb15ConcurrentArena9tls_cpuidE)
  store i64 %31, ptr %32, align 8, !tbaa !58
  ret ptr %28
}